target datalayout = "e-m:e-p270:32:32-p271:32:32-p272:64:64-i64:64-i128:128-f80:128-n8:16:32:64-S128"
target triple = "x86_64-pc-linux-gnu"

%struct.mbedtls_mpi = type { ptr, i16, i16 }
%struct.mbedtls_rsa_context = type { i32, i64, %struct.mbedtls_mpi, %struct.mbedtls_mpi, %struct.mbedtls_mpi, %struct.mbedtls_mpi, %struct.mbedtls_mpi, %struct.mbedtls_mpi, %struct.mbedtls_mpi, %struct.mbedtls_mpi, %struct.mbedtls_mpi, %struct.mbedtls_mpi, %struct.mbedtls_mpi, %struct.mbedtls_mpi, %struct.mbedtls_mpi, i32, i32 }

; Function Attrs: nounwind uwtable
define hidden i32 @mbedtls_rsa_set_padding(ptr noundef %0, i32 noundef %1, i32 noundef %2) #0 {
  %4 = alloca i32, align 4
  %5 = alloca ptr, align 8
  %6 = alloca i32, align 4
  %7 = alloca i32, align 4
  store ptr %0, ptr %5, align 8, !tbaa !3
  store i32 %1, ptr %6, align 4, !tbaa !12
  store i32 %2, ptr %7, align 4, !tbaa !12
  %8 = load i32, ptr %6, align 4, !tbaa !12
  switch i32 %8, label %9 [
    i32 0, label %10
    i32 1, label %10
  ]

9:                                                ; preds = %3
  store i32 -16640, ptr %4, align 4
  br label %29

10:                                               ; preds = %3, %3
  %11 = load i32, ptr %6, align 4, !tbaa !12
  %12 = icmp eq i32 %11, 1
  br i1 %12, label %13, label %22

13:                                               ; preds = %10
  %14 = load i32, ptr %7, align 4, !tbaa !12
  %15 = icmp ne i32 %14, 0
  br i1 %15, label %16, label %22

16:                                               ; preds = %13
  %17 = load i32, ptr %7, align 4, !tbaa !12
  %18 = call ptr @mbedtls_md_info_from_type(i32 noundef %17)
  %19 = icmp eq ptr %18, null
  br i1 %19, label %20, label %21

20:                                               ; preds = %16
  store i32 -16640, ptr %4, align 4
  br label %29

21:                                               ; preds = %16
  br label %22

22:                                               ; preds = %21, %13, %10
  %23 = load i32, ptr %6, align 4, !tbaa !12
  %24 = load ptr, ptr %5, align 8, !tbaa !3
  %25 = getelementptr inbounds nuw %struct.mbedtls_rsa_context, ptr %24, i32 0, i32 15
  store i32 %23, ptr %25, align 8, !tbaa !24
  %26 = load i32, ptr %7, align 4, !tbaa !12
  %27 = load ptr, ptr %5, align 8, !tbaa !3
  %28 = getelementptr inbounds nuw %struct.mbedtls_rsa_context, ptr %27, i32 0, i32 16
  store i32 %26, ptr %28, align 4, !tbaa !25
  store i32 0, ptr %4, align 4
  br label %29

29:                                               ; preds = %22, %20, %9
  %30 = load i32, ptr %4, align 4
  ret i32 %30
}