; Function Attrs: nounwind uwtable
define hidden range(i32 -16640, 1) i32 @mbedtls_rsa_set_padding(ptr noundef writeonly captures(none) %0, i32 noundef %1, i32 noundef %2) local_unnamed_addr #0 {
  %switch = icmp ult i32 %1, 2
  br i1 %switch, label %4, label %13

4:                                                ; preds = %3
  %5 = icmp eq i32 %1, 1
  %6 = icmp ne i32 %2, 0
  %or.cond = and i1 %5, %6
  br i1 %or.cond, label %7, label %10

7:                                                ; preds = %4
  %8 = tail call ptr @mbedtls_md_info_from_type(i32 noundef %2) #14
  %9 = icmp eq ptr %8, null
  br i1 %9, label %13, label %10

10:                                               ; preds = %7, %4
  %11 = getelementptr inbounds nuw i8, ptr %0, i64 224
  store i32 %1, ptr %11, align 8, !tbaa !17
  %12 = getelementptr inbounds nuw i8, ptr %0, i64 228
  store i32 %2, ptr %12, align 4, !tbaa !18
  br label %13

13:                                               ; preds = %7, %3, %10
  %.0 = phi i32 [ 0, %10 ], [ -16640, %3 ], [ -16640, %7 ]
  ret i32 %.0
}